target datalayout = "e-m:e-p270:32:32-p271:32:32-p272:64:64-i64:64-i128:128-f80:128-n8:16:32:64-S128"
target triple = "x86_64-pc-linux-gnu"

%class.CellTypeState = type { i32 }
%class.methodHandle = type { ptr, ptr }
%class.RetTable = type { ptr }
%class.GenerateOopMap = type { ptr, %class.methodHandle, %class.RetTable, i32, i32, i32, i32, i8, %class.Handle, i8, i8, i8, i32, ptr, ptr, i32, i32, ptr, i32, i32, %class.ResourceBitMap, i8, i8, ptr, ptr, i8, i32, ptr, ptr }
%class.Handle = type { ptr }
%class.ResourceBitMap = type { %class.GrowableBitMap }
%class.GrowableBitMap = type { %class.BitMap }
%class.BitMap = type { ptr, i64 }

; Function Attrs: mustprogress nounwind uwtable
define linkonce_odr hidden i32 @_ZN13CellTypeState8make_anyEi(i32 noundef %0) #1 comdat align 2 {
  %2 = alloca %class.CellTypeState, align 4
  %3 = alloca i32, align 4
  store i32 %0, ptr %3, align 4
  %4 = load i32, ptr %3, align 4
  %5 = getelementptr inbounds %class.CellTypeState, ptr %2, i32 0, i32 0
  store i32 %4, ptr %5, align 4
  %6 = getelementptr inbounds %class.CellTypeState, ptr %2, i32 0, i32 0
  %7 = load i32, ptr %6, align 4
  ret i32 %7
}

; Function Attrs: mustprogress nounwind uwtable
define linkonce_odr hidden i32 @_ZN13CellTypeState13make_slot_refEi(i32 noundef %0) #1 comdat align 2 {
  %2 = alloca %class.CellTypeState, align 4
  %3 = alloca i32, align 4
  store i32 %0, ptr %3, align 4
  %4 = load i32, ptr %3, align 4
  %5 = and i32 %4, 16777215
  %6 = or i32 1191182336, %5
  %7 = call i32 @_ZN13CellTypeState8make_anyEi(i32 noundef %6)
  %8 = getelementptr inbounds %class.CellTypeState, ptr %2, i32 0, i32 0
  store i32 %7, ptr %8, align 4
  %9 = getelementptr inbounds %class.CellTypeState, ptr %2, i32 0, i32 0
  %10 = load i32, ptr %9, align 4
  ret i32 %10
}

; Function Attrs: mustprogress nounwind uwtable
define linkonce_odr hidden noundef zeroext i1 @_ZNK13CellTypeState20is_nonlock_referenceEv(ptr noundef nonnull align 4 dereferenceable(4) %0) #1 comdat align 2 {
  %2 = alloca ptr, align 8
  store ptr %0, ptr %2, align 8
  %3 = load ptr, ptr %2, align 8
  %4 = getelementptr inbounds %class.CellTypeState, ptr %3, i32 0, i32 0
  %5 = load i32, ptr %4, align 4
  %6 = and i32 %5, -100663296
  %7 = icmp eq i32 %6, 1107296256
  ret i1 %7
}

; Function Attrs: mustprogress nounwind uwtable
define hidden void @_ZN14GenerateOopMap10copy_stateEP13CellTypeStateS1_(ptr noundef nonnull align 8 dereferenceable(176) %0, ptr noundef %1, ptr noundef %2) #1 align 2 {
  %4 = alloca ptr, align 8
  %5 = alloca ptr, align 8
  %6 = alloca ptr, align 8
  %7 = alloca i32, align 4
  %8 = alloca i32, align 4
  %9 = alloca %class.CellTypeState, align 4
  %10 = alloca i32, align 4
  %11 = alloca i32, align 4
  store ptr %0, ptr %4, align 8
  store ptr %1, ptr %5, align 8
  store ptr %2, ptr %6, align 8
  %12 = load ptr, ptr %4, align 8
  %13 = getelementptr inbounds %class.GenerateOopMap, ptr %12, i32 0, i32 3
  %14 = load i32, ptr %13, align 8
  %15 = getelementptr inbounds %class.GenerateOopMap, ptr %12, i32 0, i32 15
  %16 = load i32, ptr %15, align 8
  %17 = add nsw i32 %14, %16
  store i32 %17, ptr %7, align 4
  store i32 0, ptr %8, align 4
  br label %18

18:                                               ; preds = %46, %3
  %19 = load i32, ptr %8, align 4
  %20 = load i32, ptr %7, align 4
  %21 = icmp slt i32 %19, %20
  br i1 %21, label %22, label %49

22:                                               ; preds = %18
  %23 = load ptr, ptr %6, align 8
  %24 = load i32, ptr %8, align 4
  %25 = sext i32 %24 to i64
  %26 = getelementptr inbounds %class.CellTypeState, ptr %23, i64 %25
  %27 = call noundef zeroext i1 @_ZNK13CellTypeState20is_nonlock_referenceEv(ptr noundef nonnull align 4 dereferenceable(4) %26)
  br i1 %27, label %28, label %36

28:                                               ; preds = %22
  %29 = load i32, ptr %8, align 4
  %30 = call i32 @_ZN13CellTypeState13make_slot_refEi(i32 noundef %29)
  %31 = getelementptr inbounds %class.CellTypeState, ptr %9, i32 0, i32 0
  store i32 %30, ptr %31, align 4
  %32 = load ptr, ptr %5, align 8
  %33 = load i32, ptr %8, align 4
  %34 = sext i32 %33 to i64
  %35 = getelementptr inbounds %class.CellTypeState, ptr %32, i64 %34
  call void @llvm.memcpy.p0.p0.i64(ptr align 4 %35, ptr align 4 %9, i64 4, i1 false)
  br label %45

36:                                               ; preds = %22
  %37 = load ptr, ptr %6, align 8
  %38 = load i32, ptr %8, align 4
  %39 = sext i32 %38 to i64
  %40 = getelementptr inbounds %class.CellTypeState, ptr %37, i64 %39
  %41 = load ptr, ptr %5, align 8
  %42 = load i32, ptr %8, align 4
  %43 = sext i32 %42 to i64
  %44 = getelementptr inbounds %class.CellTypeState, ptr %41, i64 %43
  call void @llvm.memcpy.p0.p0.i64(ptr align 4 %44, ptr align 4 %40, i64 4, i1 false)
  br label %45

45:                                               ; preds = %36, %28
  br label %46

46:                                               ; preds = %45
  %47 = load i32, ptr %8, align 4
  %48 = add nsw i32 %47, 1
  store i32 %48, ptr %8, align 4
  br label %18, !llvm.loop !23

49:                                               ; preds = %18
  %50 = getelementptr inbounds %class.GenerateOopMap, ptr %12, i32 0, i32 5
  %51 = load i32, ptr %50, align 8
  %52 = icmp sgt i32 %51, 0
  br i1 %52, label %53, label %85

53:                                               ; preds = %49
  %54 = getelementptr inbounds %class.GenerateOopMap, ptr %12, i32 0, i32 16
  %55 = load i32, ptr %54, align 4
  %56 = icmp ne i32 %55, -1
  br i1 %56, label %57, label %85

57:                                               ; preds = %53
  %58 = getelementptr inbounds %class.GenerateOopMap, ptr %12, i32 0, i32 3
  %59 = load i32, ptr %58, align 8
  %60 = getelementptr inbounds %class.GenerateOopMap, ptr %12, i32 0, i32 4
  %61 = load i32, ptr %60, align 4
  %62 = add nsw i32 %59, %61
  store i32 %62, ptr %10, align 4
  %63 = load i32, ptr %10, align 4
  %64 = getelementptr inbounds %class.GenerateOopMap, ptr %12, i32 0, i32 16
  %65 = load i32, ptr %64, align 4
  %66 = add nsw i32 %63, %65
  store i32 %66, ptr %7, align 4
  %67 = load i32, ptr %10, align 4
  store i32 %67, ptr %11, align 4
  br label %68

68:                                               ; preds = %81, %57
  %69 = load i32, ptr %11, align 4
  %70 = load i32, ptr %7, align 4
  %71 = icmp slt i32 %69, %70
  br i1 %71, label %72, label %84

72:                                               ; preds = %68
  %73 = load ptr, ptr %6, align 8
  %74 = load i32, ptr %11, align 4
  %75 = sext i32 %74 to i64
  %76 = getelementptr inbounds %class.CellTypeState, ptr %73, i64 %75
  %77 = load ptr, ptr %5, align 8
  %78 = load i32, ptr %11, align 4
  %79 = sext i32 %78 to i64
  %80 = getelementptr inbounds %class.CellTypeState, ptr %77, i64 %79
  call void @llvm.memcpy.p0.p0.i64(ptr align 4 %80, ptr align 4 %76, i64 4, i1 false)
  br label %81

81:                                               ; preds = %72
  %82 = load i32, ptr %11, align 4
  %83 = add nsw i32 %82, 1
  store i32 %83, ptr %11, align 4
  br label %68, !llvm.loop !24

84:                                               ; preds = %68
  br label %85

85:                                               ; preds = %84, %53, %49
  ret void
}