; Function Attrs: mustprogress nofree norecurse nosync nounwind memory(argmem: readwrite) uwtable
define hidden void @_ZN14GenerateOopMap10copy_stateEP13CellTypeStateS1_(ptr nocapture noundef nonnull readonly align 8 dereferenceable(176) %0, ptr nocapture noundef writeonly %1, ptr nocapture noundef readonly %2) local_unnamed_addr #9 align 2 {
  %4 = getelementptr inbounds i8, ptr %0, i64 32
  %5 = load i32, ptr %4, align 8
  %6 = getelementptr inbounds i8, ptr %0, i64 88
  %7 = load i32, ptr %6, align 8
  %8 = add nsw i32 %7, %5
  %9 = icmp sgt i32 %8, 0
  br i1 %9, label %.lr.ph.preheader, label %._crit_edge

.lr.ph.preheader:                                 ; preds = %3
  %wide.trip.count = zext nneg i32 %8 to i64
  br label %.lr.ph

.lr.ph:                                           ; preds = %.lr.ph.preheader, %.lr.ph
  %indvars.iv = phi i64 [ 0, %.lr.ph.preheader ], [ %indvars.iv.next, %.lr.ph ]
  %10 = getelementptr inbounds %class.CellTypeState, ptr %2, i64 %indvars.iv
  %11 = load i32, ptr %10, align 4
  %12 = and i32 %11, -100663296
  %13 = icmp eq i32 %12, 1107296256
  %14 = trunc nuw nsw i64 %indvars.iv to i32
  %15 = and i32 %14, 16777215
  %16 = or disjoint i32 %15, 1191182336
  %.sink = select i1 %13, i32 %16, i32 %11
  %17 = getelementptr inbounds %class.CellTypeState, ptr %1, i64 %indvars.iv
  store i32 %.sink, ptr %17, align 4
  %indvars.iv.next = add nuw nsw i64 %indvars.iv, 1
  %exitcond.not = icmp eq i64 %indvars.iv.next, %wide.trip.count
  br i1 %exitcond.not, label %._crit_edge, label %.lr.ph, !llvm.loop !24

._crit_edge:                                      ; preds = %.lr.ph, %3
  %18 = getelementptr inbounds i8, ptr %0, i64 40
  %19 = load i32, ptr %18, align 8
  %20 = icmp sgt i32 %19, 0
  br i1 %20, label %21, label %.loopexit

21:                                               ; preds = %._crit_edge
  %22 = getelementptr inbounds i8, ptr %0, i64 92
  %23 = load i32, ptr %22, align 4
  %24 = icmp sgt i32 %23, 0
  br i1 %24, label %.lr.ph26.preheader, label %.loopexit

.lr.ph26.preheader:                               ; preds = %21
  %25 = getelementptr inbounds i8, ptr %0, i64 36
  %26 = load i32, ptr %25, align 4
  %27 = load i32, ptr %4, align 8
  %28 = add i32 %26, %27
  %29 = add nsw i32 %28, %23
  %30 = sext i32 %28 to i64
  %31 = sext i32 %29 to i64
  br label %.lr.ph26

.lr.ph26:                                         ; preds = %.lr.ph26.preheader, %.lr.ph26
  %indvars.iv29 = phi i64 [ %30, %.lr.ph26.preheader ], [ %indvars.iv.next30, %.lr.ph26 ]
  %32 = getelementptr inbounds %class.CellTypeState, ptr %2, i64 %indvars.iv29
  %33 = getelementptr inbounds %class.CellTypeState, ptr %1, i64 %indvars.iv29
  %34 = load i32, ptr %32, align 4
  store i32 %34, ptr %33, align 4
  %indvars.iv.next30 = add nsw i64 %indvars.iv29, 1
  %35 = icmp slt i64 %indvars.iv.next30, %31
  br i1 %35, label %.lr.ph26, label %.loopexit, !llvm.loop !25

.loopexit:                                        ; preds = %.lr.ph26, %21, %._crit_edge
  ret void
}